target datalayout = "e-m:e-p270:32:32-p271:32:32-p272:64:64-i64:64-i128:128-f80:128-n8:16:32:64-S128"
target triple = "x86_64-pc-linux-gnu"

%struct.LZ4HC_CCtx_internal = type { [32768 x i32], [65536 x i16], ptr, ptr, ptr, i32, i32, i32, i16, i8, i8, ptr }

; Function Attrs: nounwind uwtable
define internal void @LZ4HC_clearTables(ptr noundef %0) #0 {
  %2 = alloca ptr, align 8
  store ptr %0, ptr %2, align 8, !tbaa !11
  %3 = load ptr, ptr %2, align 8, !tbaa !11
  %4 = getelementptr inbounds nuw %struct.LZ4HC_CCtx_internal, ptr %3, i32 0, i32 0
  %5 = getelementptr inbounds [32768 x i32], ptr %4, i64 0, i64 0
  call void @llvm.memset.p0.i64(ptr align 8 %5, i8 0, i64 131072, i1 false)
  %6 = load ptr, ptr %2, align 8, !tbaa !11
  %7 = getelementptr inbounds nuw %struct.LZ4HC_CCtx_internal, ptr %6, i32 0, i32 1
  %8 = getelementptr inbounds [65536 x i16], ptr %7, i64 0, i64 0
  call void @llvm.memset.p0.i64(ptr align 8 %8, i8 -1, i64 131072, i1 false)
  ret void
}

; Function Attrs: nounwind uwtable
define dso_local void @LZ4_setCompressionLevel(ptr noundef %0, i32 noundef %1) #0 {
  %3 = alloca ptr, align 8
  %4 = alloca i32, align 4
  store ptr %0, ptr %3, align 8, !tbaa !34
  store i32 %1, ptr %4, align 4, !tbaa !9
  %5 = load i32, ptr %4, align 4, !tbaa !9
  %6 = icmp slt i32 %5, 1
  br i1 %6, label %7, label %8

7:                                                ; preds = %2
  store i32 9, ptr %4, align 4, !tbaa !9
  br label %8

8:                                                ; preds = %7, %2
  %9 = load i32, ptr %4, align 4, !tbaa !9
  %10 = icmp sgt i32 %9, 12
  br i1 %10, label %11, label %12

11:                                               ; preds = %8
  store i32 12, ptr %4, align 4, !tbaa !9
  br label %12

12:                                               ; preds = %11, %8
  %13 = load i32, ptr %4, align 4, !tbaa !9
  %14 = trunc i32 %13 to i16
  %15 = load ptr, ptr %3, align 8, !tbaa !34
  %16 = getelementptr inbounds nuw %struct.LZ4HC_CCtx_internal, ptr %15, i32 0, i32 8
  store i16 %14, ptr %16, align 4, !tbaa !31
  ret void
}

; Function Attrs: nounwind uwtable
define internal void @LZ4HC_init_internal(ptr noundef %0, ptr noundef %1) #0 {
  %3 = alloca ptr, align 8
  %4 = alloca ptr, align 8
  %5 = alloca i64, align 8
  %6 = alloca i64, align 8
  store ptr %0, ptr %3, align 8, !tbaa !11
  store ptr %1, ptr %4, align 8, !tbaa !4
  call void @llvm.lifetime.start.p0(i64 8, ptr %5) #11
  %7 = load ptr, ptr %3, align 8, !tbaa !11
  %8 = getelementptr inbounds nuw %struct.LZ4HC_CCtx_internal, ptr %7, i32 0, i32 2
  %9 = load ptr, ptr %8, align 8, !tbaa !13
  %10 = load ptr, ptr %3, align 8, !tbaa !11
  %11 = getelementptr inbounds nuw %struct.LZ4HC_CCtx_internal, ptr %10, i32 0, i32 3
  %12 = load ptr, ptr %11, align 8, !tbaa !16
  %13 = ptrtoint ptr %9 to i64
  %14 = ptrtoint ptr %12 to i64
  %15 = sub i64 %13, %14
  store i64 %15, ptr %5, align 8, !tbaa !18
  call void @llvm.lifetime.start.p0(i64 8, ptr %6) #11
  %16 = load i64, ptr %5, align 8, !tbaa !18
  %17 = load ptr, ptr %3, align 8, !tbaa !11
  %18 = getelementptr inbounds nuw %struct.LZ4HC_CCtx_internal, ptr %17, i32 0, i32 5
  %19 = load i32, ptr %18, align 8, !tbaa !17
  %20 = zext i32 %19 to i64
  %21 = add i64 %16, %20
  store i64 %21, ptr %6, align 8, !tbaa !18
  %22 = load i64, ptr %6, align 8, !tbaa !18
  %23 = icmp ugt i64 %22, 1073741824
  br i1 %23, label %24, label %26

24:                                               ; preds = %2
  %25 = load ptr, ptr %3, align 8, !tbaa !11
  call void @LZ4HC_clearTables(ptr noundef %25)
  store i64 0, ptr %6, align 8, !tbaa !18
  br label %26

26:                                               ; preds = %24, %2
  %27 = load i64, ptr %6, align 8, !tbaa !18
  %28 = add i64 %27, 65536
  store i64 %28, ptr %6, align 8, !tbaa !18
  %29 = load i64, ptr %6, align 8, !tbaa !18
  %30 = trunc i64 %29 to i32
  %31 = load ptr, ptr %3, align 8, !tbaa !11
  %32 = getelementptr inbounds nuw %struct.LZ4HC_CCtx_internal, ptr %31, i32 0, i32 7
  store i32 %30, ptr %32, align 8, !tbaa !38
  %33 = load ptr, ptr %4, align 8, !tbaa !4
  %34 = load ptr, ptr %3, align 8, !tbaa !11
  %35 = getelementptr inbounds nuw %struct.LZ4HC_CCtx_internal, ptr %34, i32 0, i32 3
  store ptr %33, ptr %35, align 8, !tbaa !16
  %36 = load ptr, ptr %4, align 8, !tbaa !4
  %37 = load ptr, ptr %3, align 8, !tbaa !11
  %38 = getelementptr inbounds nuw %struct.LZ4HC_CCtx_internal, ptr %37, i32 0, i32 2
  store ptr %36, ptr %38, align 8, !tbaa !13
  %39 = load ptr, ptr %4, align 8, !tbaa !4
  %40 = load ptr, ptr %3, align 8, !tbaa !11
  %41 = getelementptr inbounds nuw %struct.LZ4HC_CCtx_internal, ptr %40, i32 0, i32 4
  store ptr %39, ptr %41, align 8, !tbaa !39
  %42 = load i64, ptr %6, align 8, !tbaa !18
  %43 = trunc i64 %42 to i32
  %44 = load ptr, ptr %3, align 8, !tbaa !11
  %45 = getelementptr inbounds nuw %struct.LZ4HC_CCtx_internal, ptr %44, i32 0, i32 5
  store i32 %43, ptr %45, align 8, !tbaa !17
  %46 = load i64, ptr %6, align 8, !tbaa !18
  %47 = trunc i64 %46 to i32
  %48 = load ptr, ptr %3, align 8, !tbaa !11
  %49 = getelementptr inbounds nuw %struct.LZ4HC_CCtx_internal, ptr %48, i32 0, i32 6
  store i32 %47, ptr %49, align 4, !tbaa !40
  call void @llvm.lifetime.end.p0(i64 8, ptr %6) #11
  call void @llvm.lifetime.end.p0(i64 8, ptr %5) #11
  ret void
}

; Function Attrs: nounwind uwtable
define dso_local ptr @LZ4_createStreamHC() #0 {
  %1 = alloca ptr, align 8
  %2 = alloca ptr, align 8
  %3 = alloca i32, align 4
  call void @llvm.lifetime.start.p0(i64 8, ptr %2) #11
  %4 = call noalias ptr @calloc(i64 noundef 1, i64 noundef 262200) #13
  store ptr %4, ptr %2, align 8, !tbaa !34
  %5 = load ptr, ptr %2, align 8, !tbaa !34
  %6 = icmp eq ptr %5, null
  br i1 %6, label %7, label %8

7:                                                ; preds = %0
  store ptr null, ptr %1, align 8
  store i32 1, ptr %3, align 4
  br label %11

8:                                                ; preds = %0
  %9 = load ptr, ptr %2, align 8, !tbaa !34
  call void @LZ4_setCompressionLevel(ptr noundef %9, i32 noundef 9)
  %10 = load ptr, ptr %2, align 8, !tbaa !34
  store ptr %10, ptr %1, align 8
  store i32 1, ptr %3, align 4
  br label %11

11:                                               ; preds = %8, %7
  call void @llvm.lifetime.end.p0(i64 8, ptr %2) #11
  %12 = load ptr, ptr %1, align 8
  ret ptr %12
}

; Function Attrs: nounwind uwtable
define dso_local ptr @LZ4_createHC(ptr noundef %0) #0 {
  %2 = alloca ptr, align 8
  %3 = alloca ptr, align 8
  %4 = alloca ptr, align 8
  %5 = alloca i32, align 4
  store ptr %0, ptr %3, align 8, !tbaa !4
  call void @llvm.lifetime.start.p0(i64 8, ptr %4) #11
  %6 = call ptr @LZ4_createStreamHC()
  store ptr %6, ptr %4, align 8, !tbaa !34
  %7 = load ptr, ptr %4, align 8, !tbaa !34
  %8 = icmp eq ptr %7, null
  br i1 %8, label %9, label %10

9:                                                ; preds = %1
  store ptr null, ptr %2, align 8
  store i32 1, ptr %5, align 4
  br label %14

10:                                               ; preds = %1
  %11 = load ptr, ptr %4, align 8, !tbaa !34
  %12 = load ptr, ptr %3, align 8, !tbaa !4
  call void @LZ4HC_init_internal(ptr noundef %11, ptr noundef %12)
  %13 = load ptr, ptr %4, align 8, !tbaa !34
  store ptr %13, ptr %2, align 8
  store i32 1, ptr %5, align 4
  br label %14

14:                                               ; preds = %10, %9
  call void @llvm.lifetime.end.p0(i64 8, ptr %4) #11
  %15 = load ptr, ptr %2, align 8
  ret ptr %15
}