; Function Attrs: mustprogress nofree nounwind willreturn memory(write, argmem: none, inaccessiblemem: readwrite) uwtable
define dso_local noalias noundef ptr @LZ4_createHC(ptr noundef %0) local_unnamed_addr #10 {
  %2 = tail call noalias dereferenceable_or_null(262200) ptr @calloc(i64 noundef 1, i64 noundef 262200) #20
  %3 = icmp eq ptr %2, null
  br i1 %3, label %LZ4_createStreamHC.exit.thread, label %LZ4HC_init_internal.exit

LZ4HC_init_internal.exit:                         ; preds = %1
  %4 = getelementptr inbounds nuw i8, ptr %2, i64 262180
  store i16 9, ptr %4, align 4, !tbaa !26
  %5 = getelementptr inbounds nuw i8, ptr %2, i64 262168
  %6 = getelementptr inbounds nuw i8, ptr %2, i64 262152
  %7 = getelementptr inbounds nuw i8, ptr %2, i64 262144
  %8 = getelementptr inbounds nuw i8, ptr %2, i64 262176
  store i32 65536, ptr %8, align 8, !tbaa !33
  store ptr %0, ptr %6, align 8, !tbaa !13
  store ptr %0, ptr %7, align 8, !tbaa !4
  %9 = getelementptr inbounds nuw i8, ptr %2, i64 262160
  store ptr %0, ptr %9, align 8, !tbaa !34
  store i32 65536, ptr %5, align 8, !tbaa !14
  %10 = getelementptr inbounds nuw i8, ptr %2, i64 262172
  store i32 65536, ptr %10, align 4, !tbaa !35
  br label %LZ4_createStreamHC.exit.thread

LZ4_createStreamHC.exit.thread:                   ; preds = %1, %LZ4HC_init_internal.exit
  ret ptr %2
}